#include <math.h>
#include <stdio.h>
#include <stdlib.h>
#include <string.h>

int main(){
int h,l,i,j,q=0;
int sz[10][10],max[10],lie[10];
scanf("%d,%d",&h,&l);
for(i=0;i<h;i++)
{
for(j=0;j<l;j++)
{
scanf("%d",&sz[i][j]);
}
}
for(i=0;i<h;i++)
max[i]=sz[i][0];
for(i=0;i<h;i++)
{
for(j=0;j<l;j++)
{
if(sz[i][j]>=sz[i][0]){
max[i]=sz[i][j];
lie[i]=j;
}
}
}

for(i=0;i<h;i++)
{
for(j=0;j<h;j++)
{
if(max[i]>sz[j][lie[i]])
break;
if(j==h-1){
printf("%d+%d",i,lie[i]);
q=1;
}
}
}
if(q==0)
printf("No");
return 0;
}